; Function Attrs: null_pointer_is_valid sspstrong uwtable
define internal i32 @dissect_serialization(ptr noundef %0, ptr noundef readonly captures(none) %1, ptr noundef %2, ptr readnone captures(none) %3) #1 {
  %5 = getelementptr inbounds nuw i8, ptr %1, i64 8
  %6 = load ptr, ptr %5, align 8
  tail call void @col_set_str(ptr noundef %6, i32 noundef 35, ptr noundef nonnull @.str.123)
  %7 = load ptr, ptr %5, align 8
  tail call void @col_clear(ptr noundef %7, i32 noundef 25)
  %.not = icmp eq ptr %2, null
  br i1 %.not, label %13, label %8

8:                                                ; preds = %4
  %9 = load i32, ptr @proto_serialization, align 4
  %10 = tail call ptr @proto_tree_add_item(ptr noundef nonnull %2, i32 noundef %9, ptr noundef %0, i32 noundef 0, i32 noundef -1, i32 noundef 0)
  %11 = load i32, ptr @ett_serialization, align 4
  %12 = tail call ptr @proto_item_add_subtree(ptr noundef %10, i32 noundef %11)
  br label %13

13:                                               ; preds = %8, %4
  %.0 = phi ptr [ %12, %8 ], [ null, %4 ]
  %14 = load ptr, ptr %5, align 8
  %15 = getelementptr inbounds nuw i8, ptr %1, i64 408
  %16 = load ptr, ptr %15, align 8
  %17 = tail call ptr @tvb_bytes_to_str(ptr noundef %16, ptr noundef %0, i32 noundef 0, i32 noundef 6)
  tail call void (ptr, i32, ptr, ...) @col_add_fstr(ptr noundef %14, i32 noundef 25, ptr noundef nonnull @.str.417, ptr noundef %17)
  %18 = load i32, ptr @hf_serial_number, align 4
  %19 = tail call ptr @proto_tree_add_item(ptr noundef %.0, i32 noundef %18, ptr noundef %0, i32 noundef 0, i32 noundef 6, i32 noundef 0)
  %20 = tail call i32 @tvb_captured_length(ptr noundef %0)
  ret i32 %20
}